target datalayout = "e-m:e-p270:32:32-p271:32:32-p272:64:64-i64:64-i128:128-f80:128-n8:16:32:64-S128"
target triple = "x86_64-pc-linux-gnu"

%struct.QTailQLink = type { ptr, ptr }
%struct.QemuMutex = type { %union.pthread_mutex_t, i8 }
%union.pthread_mutex_t = type { %struct.__pthread_mutex_s }
%struct.__pthread_mutex_s = type { i32, i32, i32, i32, i32, i16, i16, %struct.__pthread_internal_list }
%struct.__pthread_internal_list = type { ptr, ptr }
%struct.BlockDriverState = type { i32, i8, i8, i8, i8, i8, ptr, ptr, ptr, %struct.anon, i8, [4096 x i8], [4096 x i8], [4096 x i8], [16 x i8], ptr, [4096 x i8], %struct.BlockLimits, i32, i32, i32, i32, [32 x i8], %union.anon.0, %union.anon.1, %union.anon.2, i32, [15 x %struct.anon.3], ptr, %struct.anon.4, ptr, ptr, %struct.anon.5, ptr, ptr, i32, ptr, i64, i64, %struct.QemuMutex, %struct.anon.6, %struct.Stat64, i32, i32, i32, i32, i32, i32, %struct.QemuMutex, %struct.anon.7, %struct.CoQueue, i8, i32, i8, %struct.CoMutex, ptr, ptr }
%struct.anon = type { ptr }
%struct.BlockLimits = type { i32, i64, i32, i64, i32, i32, i32, i64, i32, i64, i64, i32, i8, i32, i32, i32, i32, i32, i32, i32 }
%union.anon.0 = type { %struct.QTailQLink }
%union.anon.1 = type { %struct.QTailQLink }
%union.anon.2 = type { %struct.QTailQLink }
%struct.anon.3 = type { ptr }
%struct.anon.4 = type { ptr }
%struct.anon.5 = type { ptr }
%struct.anon.6 = type { ptr }
%struct.Stat64 = type { i64 }
%struct.anon.7 = type { ptr }
%struct.CoQueue = type { %struct.anon.8 }
%struct.anon.8 = type { ptr, ptr }
%struct.CoMutex = type { i32, ptr, %struct.anon.9, %struct.anon.9, i32, i32, ptr }
%struct.anon.9 = type { ptr }
%struct.BdrvChild = type { ptr, ptr, ptr, i32, ptr, i64, i64, i8, i8, %struct.anon.26, %struct.anon.27 }
%struct.anon.26 = type { ptr, ptr }
%struct.anon.27 = type { ptr, ptr }

@.str.1 = private unnamed_addr constant [19 x i8] c"../qemu/blockdev.c\00", align 1
@__func__.qmp_x_blockdev_change = private unnamed_addr constant [22 x i8] c"qmp_x_blockdev_change\00", align 1
@.str.128 = private unnamed_addr constant [46 x i8] c"The parameters child and node are in conflict\00", align 1
@.str.129 = private unnamed_addr constant [39 x i8] c"Either child or node must be specified\00", align 1
@.str.130 = private unnamed_addr constant [35 x i8] c"Node '%s' does not have child '%s'\00", align 1
@.str.131 = private unnamed_addr constant [20 x i8] c"Node '%s' not found\00", align 1

; Function Attrs: nounwind sspstrong uwtable
define internal ptr @bdrv_find_child(ptr noundef %0, ptr noundef %1) #0 {
  %3 = alloca ptr, align 8
  %4 = alloca ptr, align 8
  %5 = alloca ptr, align 8
  %6 = alloca ptr, align 8
  %7 = alloca i32, align 4
  store ptr %0, ptr %4, align 8
  store ptr %1, ptr %5, align 8
  call void @llvm.lifetime.start.p0(i64 8, ptr %6) #16
  store ptr null, ptr %6, align 8, !annotation !4
  %8 = load ptr, ptr %4, align 8
  %9 = getelementptr inbounds nuw %struct.BlockDriverState, ptr %8, i32 0, i32 29
  %10 = getelementptr inbounds nuw %struct.anon.4, ptr %9, i32 0, i32 0
  %11 = load ptr, ptr %10, align 8
  store ptr %11, ptr %6, align 8
  br label %12

12:                                               ; preds = %25, %2
  %13 = load ptr, ptr %6, align 8
  %14 = icmp ne ptr %13, null
  br i1 %14, label %15, label %30

15:                                               ; preds = %12
  %16 = load ptr, ptr %6, align 8
  %17 = getelementptr inbounds nuw %struct.BdrvChild, ptr %16, i32 0, i32 1
  %18 = load ptr, ptr %17, align 8
  %19 = load ptr, ptr %5, align 8
  %20 = call i32 @strcmp(ptr noundef %18, ptr noundef %19) #18
  %21 = icmp eq i32 %20, 0
  br i1 %21, label %22, label %24

22:                                               ; preds = %15
  %23 = load ptr, ptr %6, align 8
  store ptr %23, ptr %3, align 8
  store i32 1, ptr %7, align 4
  br label %31

24:                                               ; preds = %15
  br label %25

25:                                               ; preds = %24
  %26 = load ptr, ptr %6, align 8
  %27 = getelementptr inbounds nuw %struct.BdrvChild, ptr %26, i32 0, i32 9
  %28 = getelementptr inbounds nuw %struct.anon.26, ptr %27, i32 0, i32 0
  %29 = load ptr, ptr %28, align 8
  store ptr %29, ptr %6, align 8
  br label %12, !llvm.loop !26

30:                                               ; preds = %12
  store ptr null, ptr %3, align 8
  store i32 1, ptr %7, align 4
  br label %31

31:                                               ; preds = %30, %22
  call void @llvm.lifetime.end.p0(i64 8, ptr %6) #16
  %32 = load ptr, ptr %3, align 8
  ret ptr %32
}

; Function Attrs: nounwind sspstrong uwtable
define dso_local void @qmp_x_blockdev_change(ptr noundef %0, ptr noundef %1, ptr noundef %2, ptr noundef %3) #0 {
  %5 = alloca ptr, align 8
  %6 = alloca ptr, align 8
  %7 = alloca ptr, align 8
  %8 = alloca ptr, align 8
  %9 = alloca ptr, align 8
  %10 = alloca ptr, align 8
  %11 = alloca ptr, align 8
  store ptr %0, ptr %5, align 8
  store ptr %1, ptr %6, align 8
  store ptr %2, ptr %7, align 8
  store ptr %3, ptr %8, align 8
  call void @llvm.lifetime.start.p0(i64 8, ptr %9) #16
  store ptr null, ptr %9, align 8, !annotation !4
  call void @llvm.lifetime.start.p0(i64 8, ptr %10) #16
  store ptr null, ptr %10, align 8
  call void @llvm.lifetime.start.p0(i64 8, ptr %11) #16
  store ptr null, ptr %11, align 8, !annotation !4
  call void @bdrv_graph_wrlock()
  %12 = load ptr, ptr %5, align 8
  %13 = load ptr, ptr %5, align 8
  %14 = load ptr, ptr %8, align 8
  %15 = call ptr @bdrv_lookup_bs(ptr noundef %12, ptr noundef %13, ptr noundef %14)
  store ptr %15, ptr %9, align 8
  %16 = load ptr, ptr %9, align 8
  %17 = icmp ne ptr %16, null
  br i1 %17, label %19, label %18

18:                                               ; preds = %4
  br label %70

19:                                               ; preds = %4
  %20 = load ptr, ptr %6, align 8
  %21 = icmp ne ptr %20, null
  %22 = xor i1 %21, true
  %23 = zext i1 %22 to i32
  %24 = load ptr, ptr %7, align 8
  %25 = icmp ne ptr %24, null
  %26 = xor i1 %25, true
  %27 = zext i1 %26 to i32
  %28 = icmp eq i32 %23, %27
  br i1 %28, label %29, label %37

29:                                               ; preds = %19
  %30 = load ptr, ptr %6, align 8
  %31 = icmp ne ptr %30, null
  br i1 %31, label %32, label %34

32:                                               ; preds = %29
  %33 = load ptr, ptr %8, align 8
  call void (ptr, ptr, i32, ptr, ptr, ...) @error_setg_internal(ptr noundef %33, ptr noundef @.str.1, i32 noundef 3535, ptr noundef @__func__.qmp_x_blockdev_change, ptr noundef @.str.128)
  br label %36

34:                                               ; preds = %29
  %35 = load ptr, ptr %8, align 8
  call void (ptr, ptr, i32, ptr, ptr, ...) @error_setg_internal(ptr noundef %35, ptr noundef @.str.1, i32 noundef 3537, ptr noundef @__func__.qmp_x_blockdev_change, ptr noundef @.str.129)
  br label %36

36:                                               ; preds = %34, %32
  br label %70

37:                                               ; preds = %19
  %38 = load ptr, ptr %6, align 8
  %39 = icmp ne ptr %38, null
  br i1 %39, label %40, label %54

40:                                               ; preds = %37
  %41 = load ptr, ptr %9, align 8
  %42 = load ptr, ptr %6, align 8
  %43 = call ptr @bdrv_find_child(ptr noundef %41, ptr noundef %42)
  store ptr %43, ptr %11, align 8
  %44 = load ptr, ptr %11, align 8
  %45 = icmp ne ptr %44, null
  br i1 %45, label %50, label %46

46:                                               ; preds = %40
  %47 = load ptr, ptr %8, align 8
  %48 = load ptr, ptr %5, align 8
  %49 = load ptr, ptr %6, align 8
  call void (ptr, ptr, i32, ptr, ptr, ...) @error_setg_internal(ptr noundef %47, ptr noundef @.str.1, i32 noundef 3546, ptr noundef @__func__.qmp_x_blockdev_change, ptr noundef @.str.130, ptr noundef %48, ptr noundef %49)
  br label %70

50:                                               ; preds = %40
  %51 = load ptr, ptr %9, align 8
  %52 = load ptr, ptr %11, align 8
  %53 = load ptr, ptr %8, align 8
  call void @bdrv_del_child(ptr noundef %51, ptr noundef %52, ptr noundef %53)
  br label %54

54:                                               ; preds = %50, %37
  %55 = load ptr, ptr %7, align 8
  %56 = icmp ne ptr %55, null
  br i1 %56, label %57, label %69

57:                                               ; preds = %54
  %58 = load ptr, ptr %7, align 8
  %59 = call ptr @bdrv_find_node(ptr noundef %58)
  store ptr %59, ptr %10, align 8
  %60 = load ptr, ptr %10, align 8
  %61 = icmp ne ptr %60, null
  br i1 %61, label %65, label %62

62:                                               ; preds = %57
  %63 = load ptr, ptr %8, align 8
  %64 = load ptr, ptr %7, align 8
  call void (ptr, ptr, i32, ptr, ptr, ...) @error_setg_internal(ptr noundef %63, ptr noundef @.str.1, i32 noundef 3555, ptr noundef @__func__.qmp_x_blockdev_change, ptr noundef @.str.131, ptr noundef %64)
  br label %70

65:                                               ; preds = %57
  %66 = load ptr, ptr %9, align 8
  %67 = load ptr, ptr %10, align 8
  %68 = load ptr, ptr %8, align 8
  call void @bdrv_add_child(ptr noundef %66, ptr noundef %67, ptr noundef %68)
  br label %69

69:                                               ; preds = %65, %54
  br label %70

70:                                               ; preds = %69, %62, %46, %36, %18
  call void @bdrv_graph_wrunlock()
  call void @llvm.lifetime.end.p0(i64 8, ptr %11) #16
  call void @llvm.lifetime.end.p0(i64 8, ptr %10) #16
  call void @llvm.lifetime.end.p0(i64 8, ptr %9) #16
  ret void
}