; Function Attrs: nounwind sspstrong uwtable
define dso_local void @qmp_x_blockdev_change(ptr noundef %0, ptr noundef %1, ptr noundef %2, ptr noundef %3) local_unnamed_addr #0 {
  tail call void @bdrv_graph_wrlock() #14
  %5 = tail call ptr @bdrv_lookup_bs(ptr noundef %0, ptr noundef %0, ptr noundef %3) #14
  %.not = icmp eq ptr %5, null
  br i1 %.not, label %25, label %6

6:                                                ; preds = %4
  %.not31 = icmp eq ptr %1, null
  %.not32 = icmp eq ptr %2, null
  %7 = xor i1 %.not31, %.not32
  br i1 %7, label %11, label %8

8:                                                ; preds = %6
  br i1 %.not31, label %10, label %9

9:                                                ; preds = %8
  tail call void (ptr, ptr, i32, ptr, ptr, ...) @error_setg_internal(ptr noundef %3, ptr noundef nonnull @.str.1, i32 noundef 3535, ptr noundef nonnull @__func__.qmp_x_blockdev_change, ptr noundef nonnull @.str.128) #14
  br label %25

10:                                               ; preds = %8
  tail call void (ptr, ptr, i32, ptr, ptr, ...) @error_setg_internal(ptr noundef %3, ptr noundef nonnull @.str.1, i32 noundef 3537, ptr noundef nonnull @__func__.qmp_x_blockdev_change, ptr noundef nonnull @.str.129) #14
  br label %25

11:                                               ; preds = %6
  br i1 %.not31, label %20, label %12

12:                                               ; preds = %11
  %13 = getelementptr inbounds nuw i8, ptr %5, i64 16816
  %.08.i = load ptr, ptr %13, align 8
  %.not9.i = icmp eq ptr %.08.i, null
  br i1 %.not9.i, label %.loopexit, label %.lr.ph.i

.lr.ph.i:                                         ; preds = %12, %18
  %.010.i = phi ptr [ %.0.i, %18 ], [ %.08.i, %12 ]
  %14 = getelementptr inbounds nuw i8, ptr %.010.i, i64 8
  %15 = load ptr, ptr %14, align 8
  %16 = tail call i32 @strcmp(ptr noundef nonnull dereferenceable(1) %15, ptr noundef nonnull readonly dereferenceable(1) %1) #17
  %17 = icmp eq i32 %16, 0
  br i1 %17, label %bdrv_find_child.exit, label %18

18:                                               ; preds = %.lr.ph.i
  %19 = getelementptr inbounds nuw i8, ptr %.010.i, i64 64
  %.0.i = load ptr, ptr %19, align 8
  %.not.i = icmp eq ptr %.0.i, null
  br i1 %.not.i, label %.loopexit, label %.lr.ph.i, !llvm.loop !24

.loopexit:                                        ; preds = %18, %12
  tail call void (ptr, ptr, i32, ptr, ptr, ...) @error_setg_internal(ptr noundef %3, ptr noundef nonnull @.str.1, i32 noundef 3546, ptr noundef nonnull @__func__.qmp_x_blockdev_change, ptr noundef nonnull @.str.130, ptr noundef %0, ptr noundef nonnull %1) #14
  br label %25

bdrv_find_child.exit:                             ; preds = %.lr.ph.i
  tail call void @bdrv_del_child(ptr noundef nonnull %5, ptr noundef nonnull %.010.i, ptr noundef %3) #14
  br label %20

20:                                               ; preds = %bdrv_find_child.exit, %11
  br i1 %.not32, label %25, label %21

21:                                               ; preds = %20
  %22 = tail call ptr @bdrv_find_node(ptr noundef nonnull %2) #14
  %.not34 = icmp eq ptr %22, null
  br i1 %.not34, label %23, label %24

23:                                               ; preds = %21
  tail call void (ptr, ptr, i32, ptr, ptr, ...) @error_setg_internal(ptr noundef %3, ptr noundef nonnull @.str.1, i32 noundef 3555, ptr noundef nonnull @__func__.qmp_x_blockdev_change, ptr noundef nonnull @.str.131, ptr noundef nonnull %2) #14
  br label %25

24:                                               ; preds = %21
  tail call void @bdrv_add_child(ptr noundef nonnull %5, ptr noundef nonnull %22, ptr noundef %3) #14
  br label %25

25:                                               ; preds = %20, %24, %9, %10, %4, %23, %.loopexit
  tail call void @bdrv_graph_wrunlock() #14
  ret void
}